; Function Attrs: mustprogress uwtable
define hidden void @_ZN15static_features7new_ctxEP4expr(ptr noalias nocapture writeonly sret(%"class.std::tuple") align 1 %agg.result, ptr nocapture noundef nonnull readonly align 8 dereferenceable(792) %this, ptr noundef %e) local_unnamed_addr #3 align 2 personality ptr @__gxx_personality_v0 {
entry:
  %m_kind.i.i.i = getelementptr inbounds i8, ptr %e, i64 4
  %bf.load.i.i.i = load i32, ptr %m_kind.i.i.i, align 4
  %bf.clear.i.i.i = and i32 %bf.load.i.i.i, 65535
  %cmp.i.i = icmp eq i32 %bf.clear.i.i.i, 0
  br i1 %cmp.i.i, label %land.rhs.i, label %if.end

land.rhs.i:                                       ; preds = %entry
  %m_decl.i.i.i = getelementptr inbounds i8, ptr %e, i64 16
  %0 = load ptr, ptr %m_decl.i.i.i, align 8
  %m_info.i.i.i = getelementptr inbounds i8, ptr %0, i64 24
  %1 = load ptr, ptr %m_info.i.i.i, align 8
  %cmp.i.i.i = icmp eq ptr %1, null
  br i1 %cmp.i.i.i, label %if.end, label %_ZNK15static_features13is_basic_exprEPK4expr.exit.thread

_ZNK15static_features13is_basic_exprEPK4expr.exit.thread: ; preds = %land.rhs.i
  %2 = load i32, ptr %1, align 8
  %m_bfid.i7 = getelementptr inbounds i8, ptr %this, i64 264
  %3 = load i32, ptr %m_bfid.i7, align 8
  %cmp.i8 = icmp eq i32 %2, %3
  br i1 %cmp.i8, label %_ZNK3app13get_decl_kindEv.exit, label %if.end

_ZNK3app13get_decl_kindEv.exit:                   ; preds = %_ZNK15static_features13is_basic_exprEPK4expr.exit.thread
  %m_kind.i.i.i4 = getelementptr inbounds i8, ptr %1, i64 4
  %4 = load i32, ptr %m_kind.i.i.i4, align 4
  switch i32 %4, label %if.end [
    i32 4, label %sw.bb
    i32 5, label %sw.bb5
    i32 6, label %sw.bb5
    i32 2, label %sw.bb6
  ]

sw.bb:                                            ; preds = %_ZNK3app13get_decl_kindEv.exit
  %5 = load ptr, ptr %this, align 8
  %call4 = tail call noundef zeroext i1 @_ZNK11ast_manager7is_boolEPK4expr(ptr noundef nonnull align 8 dereferenceable(976) %5, ptr noundef nonnull %e)
  %frombool = zext i1 %call4 to i8
  br label %if.end

sw.bb5:                                           ; preds = %_ZNK3app13get_decl_kindEv.exit, %_ZNK3app13get_decl_kindEv.exit
  br label %if.end

sw.bb6:                                           ; preds = %_ZNK3app13get_decl_kindEv.exit
  br label %if.end

if.end:                                           ; preds = %land.rhs.i, %_ZNK15static_features13is_basic_exprEPK4expr.exit.thread, %entry, %_ZNK3app13get_decl_kindEv.exit, %sw.bb, %sw.bb5, %sw.bb6
  %form_ctx_new.0 = phi i8 [ 0, %_ZNK3app13get_decl_kindEv.exit ], [ 1, %sw.bb6 ], [ 1, %sw.bb5 ], [ %frombool, %sw.bb ], [ 0, %entry ], [ 0, %_ZNK15static_features13is_basic_exprEPK4expr.exit.thread ], [ 0, %land.rhs.i ]
  %or_and_ctx_new.0 = phi i8 [ 0, %_ZNK3app13get_decl_kindEv.exit ], [ 0, %sw.bb6 ], [ 1, %sw.bb5 ], [ 0, %sw.bb ], [ 0, %entry ], [ 0, %_ZNK15static_features13is_basic_exprEPK4expr.exit.thread ], [ 0, %land.rhs.i ]
  %ite_ctx_new.0 = phi i8 [ 0, %_ZNK3app13get_decl_kindEv.exit ], [ 0, %sw.bb6 ], [ 0, %sw.bb5 ], [ 1, %sw.bb ], [ 0, %entry ], [ 0, %_ZNK15static_features13is_basic_exprEPK4expr.exit.thread ], [ 0, %land.rhs.i ]
  store i8 %ite_ctx_new.0, ptr %agg.result, align 1
  %6 = getelementptr inbounds i8, ptr %agg.result, i64 1
  store i8 %or_and_ctx_new.0, ptr %6, align 1
  %7 = getelementptr inbounds i8, ptr %agg.result, i64 2
  store i8 %form_ctx_new.0, ptr %7, align 1
  ret void
}